target datalayout = "e-m:e-p270:32:32-p271:32:32-p272:64:64-i64:64-i128:128-f80:128-n8:16:32:64-S128"
target triple = "x86_64-pc-linux-gnu"

%struct.SRTContext = type { ptr, ptr, %struct.AVBPrint, [64 x i8], i32, i32 }
%struct.AVBPrint = type { ptr, i32, i32, i32, [1 x i8], [1000 x i8] }

@.str.19 = private unnamed_addr constant [20 x i8] c"tag stack overflow\0A\00", align 1
@.str.20 = private unnamed_addr constant [8 x i8] c"</%c%s>\00", align 1
@.str.21 = private unnamed_addr constant [4 x i8] c"ont\00", align 1
@.str.22 = private unnamed_addr constant [1 x i8] zeroinitializer, align 1

; Function Attrs: nounwind uwtable
define internal i32 @srt_stack_push(ptr noundef %0, i8 noundef signext %1) #1 {
  %3 = alloca i32, align 4
  %4 = alloca ptr, align 8
  %5 = alloca i8, align 1
  store ptr %0, ptr %4, align 8, !tbaa !29
  store i8 %1, ptr %5, align 1, !tbaa !70
  %6 = load ptr, ptr %4, align 8, !tbaa !29
  %7 = getelementptr inbounds nuw %struct.SRTContext, ptr %6, i32 0, i32 4
  %8 = load i32, ptr %7, align 8, !tbaa !71
  %9 = icmp sge i32 %8, 64
  br i1 %9, label %10, label %11

10:                                               ; preds = %2
  store i32 -1, ptr %3, align 4
  br label %21

11:                                               ; preds = %2
  %12 = load i8, ptr %5, align 1, !tbaa !70
  %13 = load ptr, ptr %4, align 8, !tbaa !29
  %14 = getelementptr inbounds nuw %struct.SRTContext, ptr %13, i32 0, i32 3
  %15 = load ptr, ptr %4, align 8, !tbaa !29
  %16 = getelementptr inbounds nuw %struct.SRTContext, ptr %15, i32 0, i32 4
  %17 = load i32, ptr %16, align 8, !tbaa !71
  %18 = add nsw i32 %17, 1
  store i32 %18, ptr %16, align 8, !tbaa !71
  %19 = sext i32 %17 to i64
  %20 = getelementptr inbounds [64 x i8], ptr %14, i64 0, i64 %19
  store i8 %12, ptr %20, align 1, !tbaa !70
  store i32 0, ptr %3, align 4
  br label %21

21:                                               ; preds = %11, %10
  %22 = load i32, ptr %3, align 4
  ret i32 %22
}

; Function Attrs: nounwind uwtable
define internal void @srt_close_tag(ptr noundef %0, i8 noundef signext %1) #1 {
  %3 = alloca ptr, align 8
  %4 = alloca i8, align 1
  store ptr %0, ptr %3, align 8, !tbaa !29
  store i8 %1, ptr %4, align 1, !tbaa !70
  %5 = load ptr, ptr %3, align 8, !tbaa !29
  %6 = load i8, ptr %4, align 1, !tbaa !70
  %7 = sext i8 %6 to i32
  %8 = load i8, ptr %4, align 1, !tbaa !70
  %9 = sext i8 %8 to i32
  %10 = icmp eq i32 %9, 102
  %11 = select i1 %10, ptr @.str.21, ptr @.str.22
  call void (ptr, ptr, ...) @srt_print(ptr noundef %5, ptr noundef @.str.20, i32 noundef %7, ptr noundef %11)
  ret void
}

; Function Attrs: nounwind uwtable
define internal signext i8 @srt_stack_pop(ptr noundef %0) #1 {
  %2 = alloca i8, align 1
  %3 = alloca ptr, align 8
  store ptr %0, ptr %3, align 8, !tbaa !29
  %4 = load ptr, ptr %3, align 8, !tbaa !29
  %5 = getelementptr inbounds nuw %struct.SRTContext, ptr %4, i32 0, i32 4
  %6 = load i32, ptr %5, align 8, !tbaa !71
  %7 = icmp sle i32 %6, 0
  br i1 %7, label %8, label %9

8:                                                ; preds = %1
  store i8 0, ptr %2, align 1
  br label %19

9:                                                ; preds = %1
  %10 = load ptr, ptr %3, align 8, !tbaa !29
  %11 = getelementptr inbounds nuw %struct.SRTContext, ptr %10, i32 0, i32 3
  %12 = load ptr, ptr %3, align 8, !tbaa !29
  %13 = getelementptr inbounds nuw %struct.SRTContext, ptr %12, i32 0, i32 4
  %14 = load i32, ptr %13, align 8, !tbaa !71
  %15 = add nsw i32 %14, -1
  store i32 %15, ptr %13, align 8, !tbaa !71
  %16 = sext i32 %15 to i64
  %17 = getelementptr inbounds [64 x i8], ptr %11, i64 0, i64 %16
  %18 = load i8, ptr %17, align 1, !tbaa !70
  store i8 %18, ptr %2, align 1
  br label %19

19:                                               ; preds = %9, %8
  %20 = load i8, ptr %2, align 1
  ret i8 %20
}

; Function Attrs: nounwind uwtable
define internal i32 @srt_stack_find(ptr noundef %0, i8 noundef signext %1) #1 {
  %3 = alloca ptr, align 8
  %4 = alloca i8, align 1
  %5 = alloca i32, align 4
  store ptr %0, ptr %3, align 8, !tbaa !29
  store i8 %1, ptr %4, align 1, !tbaa !70
  call void @llvm.lifetime.start.p0(i64 4, ptr %5) #7
  %6 = load ptr, ptr %3, align 8, !tbaa !29
  %7 = getelementptr inbounds nuw %struct.SRTContext, ptr %6, i32 0, i32 4
  %8 = load i32, ptr %7, align 8, !tbaa !71
  %9 = sub nsw i32 %8, 1
  store i32 %9, ptr %5, align 4, !tbaa !37
  br label %10

10:                                               ; preds = %26, %2
  %11 = load i32, ptr %5, align 4, !tbaa !37
  %12 = icmp sge i32 %11, 0
  br i1 %12, label %13, label %29

13:                                               ; preds = %10
  %14 = load ptr, ptr %3, align 8, !tbaa !29
  %15 = getelementptr inbounds nuw %struct.SRTContext, ptr %14, i32 0, i32 3
  %16 = load i32, ptr %5, align 4, !tbaa !37
  %17 = sext i32 %16 to i64
  %18 = getelementptr inbounds [64 x i8], ptr %15, i64 0, i64 %17
  %19 = load i8, ptr %18, align 1, !tbaa !70
  %20 = sext i8 %19 to i32
  %21 = load i8, ptr %4, align 1, !tbaa !70
  %22 = sext i8 %21 to i32
  %23 = icmp eq i32 %20, %22
  br i1 %23, label %24, label %25

24:                                               ; preds = %13
  br label %29

25:                                               ; preds = %13
  br label %26

26:                                               ; preds = %25
  %27 = load i32, ptr %5, align 4, !tbaa !37
  %28 = add nsw i32 %27, -1
  store i32 %28, ptr %5, align 4, !tbaa !37
  br label %10, !llvm.loop !73

29:                                               ; preds = %24, %10
  %30 = load i32, ptr %5, align 4, !tbaa !37
  call void @llvm.lifetime.end.p0(i64 4, ptr %5) #7
  ret i32 %30
}

; Function Attrs: nounwind uwtable
define internal void @srt_stack_push_pop(ptr noundef %0, i8 noundef signext %1, i32 noundef %2) #1 {
  %4 = alloca ptr, align 8
  %5 = alloca i8, align 1
  %6 = alloca i32, align 4
  %7 = alloca i32, align 4
  %8 = alloca i32, align 4
  store ptr %0, ptr %4, align 8, !tbaa !29
  store i8 %1, ptr %5, align 1, !tbaa !70
  store i32 %2, ptr %6, align 4, !tbaa !37
  %9 = load i32, ptr %6, align 4, !tbaa !37
  %10 = icmp ne i32 %9, 0
  br i1 %10, label %11, label %40

11:                                               ; preds = %3
  call void @llvm.lifetime.start.p0(i64 4, ptr %7) #7
  %12 = load i8, ptr %5, align 1, !tbaa !70
  %13 = sext i8 %12 to i32
  %14 = icmp ne i32 %13, 0
  br i1 %14, label %15, label %19

15:                                               ; preds = %11
  %16 = load ptr, ptr %4, align 8, !tbaa !29
  %17 = load i8, ptr %5, align 1, !tbaa !70
  %18 = call i32 @srt_stack_find(ptr noundef %16, i8 noundef signext %17)
  br label %20

19:                                               ; preds = %11
  br label %20

20:                                               ; preds = %19, %15
  %21 = phi i32 [ %18, %15 ], [ 0, %19 ]
  store i32 %21, ptr %7, align 4, !tbaa !37
  %22 = load i32, ptr %7, align 4, !tbaa !37
  %23 = icmp slt i32 %22, 0
  br i1 %23, label %24, label %25

24:                                               ; preds = %20
  store i32 1, ptr %8, align 4
  br label %37

25:                                               ; preds = %20
  br label %26

26:                                               ; preds = %32, %25
  %27 = load ptr, ptr %4, align 8, !tbaa !29
  %28 = getelementptr inbounds nuw %struct.SRTContext, ptr %27, i32 0, i32 4
  %29 = load i32, ptr %28, align 8, !tbaa !71
  %30 = load i32, ptr %7, align 4, !tbaa !37
  %31 = icmp ne i32 %29, %30
  br i1 %31, label %32, label %36

32:                                               ; preds = %26
  %33 = load ptr, ptr %4, align 8, !tbaa !29
  %34 = load ptr, ptr %4, align 8, !tbaa !29
  %35 = call signext i8 @srt_stack_pop(ptr noundef %34)
  call void @srt_close_tag(ptr noundef %33, i8 noundef signext %35)
  br label %26, !llvm.loop !72

36:                                               ; preds = %26
  store i32 0, ptr %8, align 4
  br label %37

37:                                               ; preds = %36, %24
  call void @llvm.lifetime.end.p0(i64 4, ptr %7) #7
  %38 = load i32, ptr %8, align 4
  switch i32 %38, label %51 [
    i32 0, label %39
    i32 1, label %50
  ]

39:                                               ; preds = %37
  br label %50

40:                                               ; preds = %3
  %41 = load ptr, ptr %4, align 8, !tbaa !29
  %42 = load i8, ptr %5, align 1, !tbaa !70
  %43 = call i32 @srt_stack_push(ptr noundef %41, i8 noundef signext %42)
  %44 = icmp slt i32 %43, 0
  br i1 %44, label %45, label %49

45:                                               ; preds = %40
  %46 = load ptr, ptr %4, align 8, !tbaa !29
  %47 = getelementptr inbounds nuw %struct.SRTContext, ptr %46, i32 0, i32 0
  %48 = load ptr, ptr %47, align 8, !tbaa !30
  call void (ptr, i32, ptr, ...) @av_log(ptr noundef %48, i32 noundef 16, ptr noundef @.str.19)
  br label %49

49:                                               ; preds = %45, %40
  br label %50

50:                                               ; preds = %37, %49, %39
  ret void

51:                                               ; preds = %37
  unreachable
}

; Function Attrs: nounwind uwtable
define internal void @srt_end_cb(ptr noundef %0) #1 {
  %2 = alloca ptr, align 8
  store ptr %0, ptr %2, align 8, !tbaa !29
  %3 = load ptr, ptr %2, align 8, !tbaa !29
  call void @srt_stack_push_pop(ptr noundef %3, i8 noundef signext 0, i32 noundef 1)
  ret void
}