; Function Attrs: nounwind uwtable
define internal void @srt_end_cb(ptr noundef %0) #1 {
  %2 = getelementptr inbounds nuw i8, ptr %0, i64 1104
  %3 = load i32, ptr %2, align 8, !tbaa !58
  %.not1217.i = icmp eq i32 %3, 0
  br i1 %.not1217.i, label %srt_stack_push_pop.exit, label %.lr.ph.i

.lr.ph.i:                                         ; preds = %1
  %4 = getelementptr inbounds nuw i8, ptr %0, i64 1040
  br label %5

5:                                                ; preds = %srt_stack_pop.exit.thread.i, %.lr.ph.i
  %6 = phi i32 [ %3, %.lr.ph.i ], [ %16, %srt_stack_pop.exit.thread.i ]
  %7 = icmp slt i32 %6, 1
  br i1 %7, label %srt_stack_pop.exit.thread.i, label %srt_stack_pop.exit.i

srt_stack_pop.exit.i:                             ; preds = %5
  %8 = add nsw i32 %6, -1
  store i32 %8, ptr %2, align 8, !tbaa !58
  %9 = zext nneg i32 %8 to i64
  %10 = getelementptr inbounds nuw [64 x i8], ptr %4, i64 0, i64 %9
  %11 = load i8, ptr %10, align 1, !tbaa !59
  %.fr.i = freeze i8 %11
  %12 = sext i8 %.fr.i to i32
  %13 = icmp eq i8 %.fr.i, 102
  %spec.select.i = select i1 %13, ptr @.str.21, ptr @.str.22
  br label %srt_stack_pop.exit.thread.i

srt_stack_pop.exit.thread.i:                      ; preds = %srt_stack_pop.exit.i, %5
  %14 = phi i32 [ 0, %5 ], [ %12, %srt_stack_pop.exit.i ]
  %15 = phi ptr [ @.str.22, %5 ], [ %spec.select.i, %srt_stack_pop.exit.i ]
  tail call void (ptr, ptr, ...) @srt_print(ptr noundef nonnull %0, ptr noundef nonnull @.str.20, i32 noundef %14, ptr noundef nonnull %15)
  %16 = load i32, ptr %2, align 8, !tbaa !58
  %.not12.i = icmp eq i32 %16, 0
  br i1 %.not12.i, label %srt_stack_push_pop.exit, label %5, !llvm.loop !65

srt_stack_push_pop.exit:                          ; preds = %srt_stack_pop.exit.thread.i, %1
  ret void
}